target datalayout = "e-m:e-p270:32:32-p271:32:32-p272:64:64-i64:64-i128:128-f80:128-n8:16:32:64-S128"
target triple = "x86_64-pc-linux-gnu"

%"class.icu_77::RuleBasedBreakIterator::DictionaryCache" = type <{ ptr, %"class.icu_77::UVector32", i32, i32, i32, i32, i32, [4 x i8] }>
%"class.icu_77::UVector32" = type { %"class.icu_77::UObject", i32, i32, i32, ptr }
%"class.icu_77::UObject" = type { ptr }

; Function Attrs: mustprogress uwtable
define void @_ZN6icu_7722RuleBasedBreakIterator15DictionaryCache5resetEv(ptr noundef nonnull align 8 dereferenceable(60) %0) #0 align 2 {
  %2 = alloca ptr, align 8
  store ptr %0, ptr %2, align 8, !tbaa !3
  %3 = load ptr, ptr %2, align 8
  %4 = getelementptr inbounds nuw %"class.icu_77::RuleBasedBreakIterator::DictionaryCache", ptr %3, i32 0, i32 2
  store i32 -1, ptr %4, align 8, !tbaa !17
  %5 = getelementptr inbounds nuw %"class.icu_77::RuleBasedBreakIterator::DictionaryCache", ptr %3, i32 0, i32 3
  store i32 0, ptr %5, align 4, !tbaa !18
  %6 = getelementptr inbounds nuw %"class.icu_77::RuleBasedBreakIterator::DictionaryCache", ptr %3, i32 0, i32 4
  store i32 0, ptr %6, align 8, !tbaa !19
  %7 = getelementptr inbounds nuw %"class.icu_77::RuleBasedBreakIterator::DictionaryCache", ptr %3, i32 0, i32 5
  store i32 0, ptr %7, align 4, !tbaa !20
  %8 = getelementptr inbounds nuw %"class.icu_77::RuleBasedBreakIterator::DictionaryCache", ptr %3, i32 0, i32 6
  store i32 0, ptr %8, align 8, !tbaa !21
  %9 = getelementptr inbounds nuw %"class.icu_77::RuleBasedBreakIterator::DictionaryCache", ptr %3, i32 0, i32 1
  call void @_ZN6icu_779UVector3217removeAllElementsEv(ptr noundef nonnull align 8 dereferenceable(32) %9)
  ret void
}