; Function Attrs: mustprogress uwtable
define void @_ZN6icu_7722RuleBasedBreakIterator15DictionaryCache5resetEv(ptr noundef nonnull align 8 dereferenceable(60) initializes((40, 60)) %0) local_unnamed_addr #0 align 2 {
  %2 = getelementptr inbounds nuw i8, ptr %0, i64 40
  store i32 -1, ptr %2, align 8, !tbaa !13
  %3 = getelementptr inbounds nuw i8, ptr %0, i64 44
  %4 = getelementptr inbounds nuw i8, ptr %0, i64 8
  tail call void @llvm.memset.p0.i64(ptr noundef nonnull align 4 dereferenceable(16) %3, i8 0, i64 16, i1 false)
  tail call void @_ZN6icu_779UVector3217removeAllElementsEv(ptr noundef nonnull align 8 dereferenceable(32) %4)
  ret void
}